target datalayout = "e-m:e-p270:32:32-p271:32:32-p272:64:64-i64:64-i128:128-f80:128-n8:16:32:64-S128"
target triple = "x86_64-pc-linux-gnu"

%"class.std::__cxx11::basic_string" = type { %"struct.std::__cxx11::basic_string<char>::_Alloc_hider", i64, %union.anon }
%"struct.std::__cxx11::basic_string<char>::_Alloc_hider" = type { ptr }
%union.anon = type { i64, [8 x i8] }
%"struct.boost::unit_test::(anonymous namespace)::unit_test_log_impl" = type { %"class.std::vector", %"class.std::vector.0", %"struct.boost::unit_test::log_entry_data", %"struct.boost::unit_test::log_checkpoint_data" }
%"class.std::vector" = type { %"struct.std::_Vector_base" }
%"struct.std::_Vector_base" = type { %"struct.std::_Vector_base<boost::unit_test::(anonymous namespace)::unit_test_log_data_helper_impl, std::allocator<boost::unit_test::(anonymous namespace)::unit_test_log_data_helper_impl>>::_Vector_impl" }
%"struct.std::_Vector_base<boost::unit_test::(anonymous namespace)::unit_test_log_data_helper_impl, std::allocator<boost::unit_test::(anonymous namespace)::unit_test_log_data_helper_impl>>::_Vector_impl" = type { %"struct.std::_Vector_base<boost::unit_test::(anonymous namespace)::unit_test_log_data_helper_impl, std::allocator<boost::unit_test::(anonymous namespace)::unit_test_log_data_helper_impl>>::_Vector_impl_data" }
%"struct.std::_Vector_base<boost::unit_test::(anonymous namespace)::unit_test_log_data_helper_impl, std::allocator<boost::unit_test::(anonymous namespace)::unit_test_log_data_helper_impl>>::_Vector_impl_data" = type { ptr, ptr, ptr }
%"class.std::vector.0" = type { %"struct.std::_Vector_base.1" }
%"struct.std::_Vector_base.1" = type { %"struct.std::_Vector_base<boost::unit_test::(anonymous namespace)::unit_test_log_data_helper_impl *, std::allocator<boost::unit_test::(anonymous namespace)::unit_test_log_data_helper_impl *>>::_Vector_impl" }
%"struct.std::_Vector_base<boost::unit_test::(anonymous namespace)::unit_test_log_data_helper_impl *, std::allocator<boost::unit_test::(anonymous namespace)::unit_test_log_data_helper_impl *>>::_Vector_impl" = type { %"struct.std::_Vector_base<boost::unit_test::(anonymous namespace)::unit_test_log_data_helper_impl *, std::allocator<boost::unit_test::(anonymous namespace)::unit_test_log_data_helper_impl *>>::_Vector_impl_data" }
%"struct.std::_Vector_base<boost::unit_test::(anonymous namespace)::unit_test_log_data_helper_impl *, std::allocator<boost::unit_test::(anonymous namespace)::unit_test_log_data_helper_impl *>>::_Vector_impl_data" = type { ptr, ptr, ptr }
%"struct.boost::unit_test::log_entry_data" = type <{ %"class.std::__cxx11::basic_string", i64, i32, [4 x i8] }>
%"struct.boost::unit_test::log_checkpoint_data" = type { %"class.boost::unit_test::basic_cstring", i64, %"class.std::__cxx11::basic_string" }
%"class.boost::unit_test::basic_cstring" = type { ptr, ptr }
%"class.boost::unit_test::ut_detail::entry_value_collector" = type { i8 }
%"struct.boost::unit_test::log::begin" = type { %"class.boost::unit_test::basic_cstring", i64 }

@__dso_handle = external hidden global i8
@_ZN5boost9unit_test12_GLOBAL__N_113unit_test_logE = internal global ptr null, align 8
@.str = private unnamed_addr constant [141 x i8] c"generated/home/dtcxzyw/WorkSpace/Projects/compilers/llvm-opt-benchmark/bench/boost/boost/libs/test/include/boost/test/impl/unit_test_log.ipp\00", align 1
@.str.2 = private unnamed_addr constant [16 x i8] c"Test is aborted\00", align 1
@_ZZN5boost9unit_test12_GLOBAL__N_110s_log_implEvE8the_inst = internal global %"struct.boost::unit_test::(anonymous namespace)::unit_test_log_impl" zeroinitializer, align 8
@_ZGVZN5boost9unit_test12_GLOBAL__N_110s_log_implEvE8the_inst = internal global i64 0, align 8
@_ZN5boost9unit_test13basic_cstringIKcE4nullE = linkonce_odr constant i8 0, comdat, align 1
@_ZN5boost9unit_test9ut_detail21entry_value_collectorD1Ev = unnamed_addr alias void (ptr), ptr @_ZN5boost9unit_test9ut_detail21entry_value_collectorD2Ev

; Function Attrs: mustprogress nounwind uwtable
define linkonce_odr hidden noundef zeroext i1 @_ZN5boost9unit_test9ut_detail20bcs_char_traits_implIKcE2eqEcc(i8 noundef signext %0, i8 noundef signext %1) #4 comdat align 2 {
  %3 = alloca i8, align 1
  %4 = alloca i8, align 1
  store i8 %0, ptr %3, align 1, !tbaa !76
  store i8 %1, ptr %4, align 1, !tbaa !76
  %5 = load i8, ptr %3, align 1, !tbaa !76
  %6 = sext i8 %5 to i32
  %7 = load i8, ptr %4, align 1, !tbaa !76
  %8 = sext i8 %7 to i32
  %9 = icmp eq i32 %6, %8
  ret i1 %9
}

; Function Attrs: mustprogress uwtable
define internal noundef nonnull align 8 dereferenceable(152) ptr @_ZN5boost9unit_test12_GLOBAL__N_110s_log_implEv() #5 personality ptr @__gxx_personality_v0 {
  %1 = alloca ptr, align 8
  %2 = alloca i32, align 4
  %3 = load atomic i8, ptr @_ZGVZN5boost9unit_test12_GLOBAL__N_110s_log_implEvE8the_inst acquire, align 8
  %4 = icmp eq i8 %3, 0
  br i1 %4, label %5, label %11, !prof !7

5:                                                ; preds = %0
  %6 = call i32 @__cxa_guard_acquire(ptr @_ZGVZN5boost9unit_test12_GLOBAL__N_110s_log_implEvE8the_inst) #3
  %7 = icmp ne i32 %6, 0
  br i1 %7, label %8, label %11

8:                                                ; preds = %5
  invoke void @_ZN5boost9unit_test12_GLOBAL__N_118unit_test_log_implC2Ev(ptr noundef nonnull align 8 dereferenceable(152) @_ZZN5boost9unit_test12_GLOBAL__N_110s_log_implEvE8the_inst)
          to label %9 unwind label %12

9:                                                ; preds = %8
  %10 = call i32 @__cxa_atexit(ptr @_ZN5boost9unit_test12_GLOBAL__N_118unit_test_log_implD2Ev, ptr @_ZZN5boost9unit_test12_GLOBAL__N_110s_log_implEvE8the_inst, ptr @__dso_handle) #3
  call void @__cxa_guard_release(ptr @_ZGVZN5boost9unit_test12_GLOBAL__N_110s_log_implEvE8the_inst) #3
  br label %11

11:                                               ; preds = %9, %5, %0
  ret ptr @_ZZN5boost9unit_test12_GLOBAL__N_110s_log_implEvE8the_inst

12:                                               ; preds = %8
  %13 = landingpad { ptr, i32 }
          cleanup
  %14 = extractvalue { ptr, i32 } %13, 0
  store ptr %14, ptr %1, align 8
  %15 = extractvalue { ptr, i32 } %13, 1
  store i32 %15, ptr %2, align 4
  call void @__cxa_guard_abort(ptr @_ZGVZN5boost9unit_test12_GLOBAL__N_110s_log_implEvE8the_inst) #3
  br label %16

16:                                               ; preds = %12
  %17 = load ptr, ptr %1, align 8
  %18 = load i32, ptr %2, align 4
  %19 = insertvalue { ptr, i32 } poison, ptr %17, 0
  %20 = insertvalue { ptr, i32 } %19, i32 %18, 1
  resume { ptr, i32 } %20
}

; Function Attrs: mustprogress uwtable
define linkonce_odr hidden noundef i64 @_ZN5boost9unit_test9ut_detail20bcs_char_traits_implIKcE6lengthEPS3_(ptr noundef %0) #5 comdat align 2 {
  %2 = alloca ptr, align 8
  %3 = alloca i8, align 1
  %4 = alloca ptr, align 8
  store ptr %0, ptr %2, align 8, !tbaa !3
  call void @llvm.lifetime.start.p0(i64 1, ptr %3) #3
  store i8 0, ptr %3, align 1, !tbaa !76
  call void @llvm.lifetime.start.p0(i64 8, ptr %4) #3
  %5 = load ptr, ptr %2, align 8, !tbaa !3
  store ptr %5, ptr %4, align 8, !tbaa !3
  br label %6

6:                                                ; preds = %11, %1
  %7 = load ptr, ptr %4, align 8, !tbaa !3
  %8 = load i8, ptr %7, align 1, !tbaa !76
  %9 = call noundef zeroext i1 @_ZN5boost9unit_test9ut_detail20bcs_char_traits_implIKcE2eqEcc(i8 noundef signext %8, i8 noundef signext 0)
  %10 = xor i1 %9, true
  br i1 %10, label %11, label %14

11:                                               ; preds = %6
  %12 = load ptr, ptr %4, align 8, !tbaa !3
  %13 = getelementptr inbounds nuw i8, ptr %12, i32 1
  store ptr %13, ptr %4, align 8, !tbaa !3
  br label %6, !llvm.loop !204

14:                                               ; preds = %6
  %15 = load ptr, ptr %4, align 8, !tbaa !3
  %16 = load ptr, ptr %2, align 8, !tbaa !3
  %17 = ptrtoint ptr %15 to i64
  %18 = ptrtoint ptr %16 to i64
  %19 = sub i64 %17, %18
  call void @llvm.lifetime.end.p0(i64 8, ptr %4) #3
  call void @llvm.lifetime.end.p0(i64 1, ptr %3) #3
  ret i64 %19
}

; Function Attrs: inlinehint mustprogress nounwind uwtable
define linkonce_odr hidden noundef ptr @_ZN5boost9unit_test13basic_cstringIKcE8null_strEv() #6 comdat align 2 {
  ret ptr @_ZN5boost9unit_test13basic_cstringIKcE4nullE
}

; Function Attrs: mustprogress nounwind uwtable
define linkonce_odr hidden void @_ZN5boost9unit_test9ut_detail21entry_value_collectorC2Ev(ptr noundef nonnull align 1 dereferenceable(1) %0) unnamed_addr #4 comdat align 2 {
  %2 = alloca ptr, align 8
  store ptr %0, ptr %2, align 8, !tbaa !3
  %3 = load ptr, ptr %2, align 8
  %4 = getelementptr inbounds nuw %"class.boost::unit_test::ut_detail::entry_value_collector", ptr %3, i32 0, i32 0
  store i8 1, ptr %4, align 1, !tbaa !32
  ret void
}

; Function Attrs: mustprogress uwtable
define noundef nonnull align 8 dereferenceable(8) ptr @_ZN5boost9unit_test15unit_test_log_tlsENS0_9log_levelE(ptr noundef nonnull align 8 dereferenceable(8) %0, i32 noundef %1) #5 align 2 {
  %3 = alloca ptr, align 8
  %4 = alloca i32, align 4
  store ptr %0, ptr %3, align 8, !tbaa !3
  store i32 %1, ptr %4, align 4, !tbaa !37
  %5 = load ptr, ptr %3, align 8
  %6 = load i32, ptr %4, align 4, !tbaa !37
  %7 = call noundef nonnull align 8 dereferenceable(152) ptr @_ZN5boost9unit_test12_GLOBAL__N_110s_log_implEv()
  %8 = getelementptr inbounds nuw %"struct.boost::unit_test::(anonymous namespace)::unit_test_log_impl", ptr %7, i32 0, i32 2
  %9 = getelementptr inbounds nuw %"struct.boost::unit_test::log_entry_data", ptr %8, i32 0, i32 2
  store i32 %6, ptr %9, align 8, !tbaa !8
  ret ptr %5
}

; Function Attrs: inlinehint mustprogress nounwind uwtable
define linkonce_odr hidden void @_ZN5boost9unit_test13basic_cstringIKcEC2ERKS3_(ptr noundef nonnull align 8 dereferenceable(16) %0, ptr noundef nonnull align 8 dereferenceable(16) %1) unnamed_addr #6 comdat align 2 {
  %3 = alloca ptr, align 8
  %4 = alloca ptr, align 8
  store ptr %0, ptr %3, align 8, !tbaa !3
  store ptr %1, ptr %4, align 8, !tbaa !3
  %5 = load ptr, ptr %3, align 8
  %6 = getelementptr inbounds nuw %"class.boost::unit_test::basic_cstring", ptr %5, i32 0, i32 0
  %7 = load ptr, ptr %4, align 8, !tbaa !3
  %8 = getelementptr inbounds nuw %"class.boost::unit_test::basic_cstring", ptr %7, i32 0, i32 0
  %9 = load ptr, ptr %8, align 8, !tbaa !30
  store ptr %9, ptr %6, align 8, !tbaa !30
  %10 = getelementptr inbounds nuw %"class.boost::unit_test::basic_cstring", ptr %5, i32 0, i32 1
  %11 = load ptr, ptr %4, align 8, !tbaa !3
  %12 = getelementptr inbounds nuw %"class.boost::unit_test::basic_cstring", ptr %11, i32 0, i32 1
  %13 = load ptr, ptr %12, align 8, !tbaa !31
  store ptr %13, ptr %10, align 8, !tbaa !31
  ret void
}

; Function Attrs: mustprogress uwtable
define noundef nonnull align 1 dereferenceable(1) ptr @_ZNK5boost9unit_test9ut_detail21entry_value_collectorlsENS0_13basic_cstringIKcEE(ptr noundef nonnull align 1 dereferenceable(1) %0, ptr noundef %1) #5 align 2 {
  %3 = alloca ptr, align 8
  %4 = alloca ptr, align 8
  %5 = alloca %"class.boost::unit_test::basic_cstring", align 8
  store ptr %0, ptr %3, align 8, !tbaa !3
  store ptr %1, ptr %4, align 8, !tbaa !3
  %6 = load ptr, ptr %3, align 8
  %7 = load ptr, ptr @_ZN5boost9unit_test12_GLOBAL__N_113unit_test_logE, align 8, !tbaa !3
  call void @_ZN5boost9unit_test13basic_cstringIKcEC2ERKS3_(ptr noundef nonnull align 8 dereferenceable(16) %5, ptr noundef nonnull align 8 dereferenceable(16) %1)
  %8 = call noundef nonnull align 8 dereferenceable(8) ptr @_ZN5boost9unit_test15unit_test_log_tlsENS0_13basic_cstringIKcEE(ptr noundef nonnull align 8 dereferenceable(8) %7, ptr noundef %5)
  ret ptr %6
}

; Function Attrs: inlinehint mustprogress uwtable
define linkonce_odr hidden void @_ZN5boost9unit_test13basic_cstringIKcEC2EPS2_(ptr noundef nonnull align 8 dereferenceable(16) %0, ptr noundef %1) unnamed_addr #9 comdat align 2 {
  %3 = alloca ptr, align 8
  %4 = alloca ptr, align 8
  store ptr %0, ptr %3, align 8, !tbaa !3
  store ptr %1, ptr %4, align 8, !tbaa !3
  %5 = load ptr, ptr %3, align 8
  %6 = getelementptr inbounds nuw %"class.boost::unit_test::basic_cstring", ptr %5, i32 0, i32 0
  %7 = load ptr, ptr %4, align 8, !tbaa !3
  %8 = icmp ne ptr %7, null
  br i1 %8, label %9, label %11

9:                                                ; preds = %2
  %10 = load ptr, ptr %4, align 8, !tbaa !3
  br label %13

11:                                               ; preds = %2
  %12 = call noundef ptr @_ZN5boost9unit_test13basic_cstringIKcE8null_strEv()
  br label %13

13:                                               ; preds = %11, %9
  %14 = phi ptr [ %10, %9 ], [ %12, %11 ]
  store ptr %14, ptr %6, align 8, !tbaa !30
  %15 = getelementptr inbounds nuw %"class.boost::unit_test::basic_cstring", ptr %5, i32 0, i32 1
  %16 = getelementptr inbounds nuw %"class.boost::unit_test::basic_cstring", ptr %5, i32 0, i32 0
  %17 = load ptr, ptr %16, align 8, !tbaa !30
  %18 = load ptr, ptr %4, align 8, !tbaa !3
  %19 = icmp ne ptr %18, null
  br i1 %19, label %20, label %23

20:                                               ; preds = %13
  %21 = load ptr, ptr %4, align 8, !tbaa !3
  %22 = call noundef i64 @_ZN5boost9unit_test9ut_detail20bcs_char_traits_implIKcE6lengthEPS3_(ptr noundef %21)
  br label %24

23:                                               ; preds = %13
  br label %24

24:                                               ; preds = %23, %20
  %25 = phi i64 [ %22, %20 ], [ 0, %23 ]
  %26 = getelementptr inbounds nuw i8, ptr %17, i64 %25
  store ptr %26, ptr %15, align 8, !tbaa !31
  ret void
}

; Function Attrs: mustprogress uwtable
define void @_ZN5boost9unit_test15unit_test_log_tclENS0_9log_levelE(ptr dead_on_unwind noalias writable sret(%"class.boost::unit_test::ut_detail::entry_value_collector") align 1 %0, ptr noundef nonnull align 8 dereferenceable(8) %1, i32 noundef %2) #5 align 2 {
  %4 = alloca ptr, align 8
  %5 = alloca ptr, align 8
  %6 = alloca i32, align 4
  store ptr %0, ptr %4, align 8
  store ptr %1, ptr %5, align 8, !tbaa !3
  store i32 %2, ptr %6, align 4, !tbaa !37
  %7 = load ptr, ptr %5, align 8
  %8 = load i32, ptr %6, align 4, !tbaa !37
  %9 = call noundef nonnull align 8 dereferenceable(8) ptr @_ZN5boost9unit_test15unit_test_log_tlsENS0_9log_levelE(ptr noundef nonnull align 8 dereferenceable(8) %7, i32 noundef %8)
  call void @_ZN5boost9unit_test9ut_detail21entry_value_collectorC2Ev(ptr noundef nonnull align 1 dereferenceable(1) %0)
  ret void
}

; Function Attrs: mustprogress uwtable
define linkonce_odr hidden void @_ZN5boost9unit_test3log5beginC2ENS0_13basic_cstringIKcEEm(ptr noundef nonnull align 8 dereferenceable(24) %0, ptr noundef %1, i64 noundef %2) unnamed_addr #5 comdat align 2 {
  %4 = alloca ptr, align 8
  %5 = alloca ptr, align 8
  %6 = alloca i64, align 8
  store ptr %0, ptr %4, align 8, !tbaa !3
  store ptr %1, ptr %5, align 8, !tbaa !3
  store i64 %2, ptr %6, align 8, !tbaa !50
  %7 = load ptr, ptr %4, align 8
  %8 = getelementptr inbounds nuw %"struct.boost::unit_test::log::begin", ptr %7, i32 0, i32 0
  call void @_ZN5boost9unit_test13basic_cstringIKcEC2ERKS3_(ptr noundef nonnull align 8 dereferenceable(16) %8, ptr noundef nonnull align 8 dereferenceable(16) %1)
  %9 = getelementptr inbounds nuw %"struct.boost::unit_test::log::begin", ptr %7, i32 0, i32 1
  %10 = load i64, ptr %6, align 8, !tbaa !50
  store i64 %10, ptr %9, align 8, !tbaa !59
  ret void
}

; Function Attrs: mustprogress nounwind uwtable
define linkonce_odr hidden void @_ZN5boost9unit_test13basic_cstringIKcEC2ImEEPS2_T_(ptr noundef nonnull align 8 dereferenceable(16) %0, ptr noundef %1, i64 noundef %2) unnamed_addr #4 comdat align 2 {
  %4 = alloca ptr, align 8
  %5 = alloca ptr, align 8
  %6 = alloca i64, align 8
  store ptr %0, ptr %4, align 8, !tbaa !3
  store ptr %1, ptr %5, align 8, !tbaa !3
  store i64 %2, ptr %6, align 8, !tbaa !50
  %7 = load ptr, ptr %4, align 8
  %8 = getelementptr inbounds nuw %"class.boost::unit_test::basic_cstring", ptr %7, i32 0, i32 0
  %9 = load ptr, ptr %5, align 8, !tbaa !3
  store ptr %9, ptr %8, align 8, !tbaa !30
  %10 = getelementptr inbounds nuw %"class.boost::unit_test::basic_cstring", ptr %7, i32 0, i32 1
  %11 = getelementptr inbounds nuw %"class.boost::unit_test::basic_cstring", ptr %7, i32 0, i32 0
  %12 = load ptr, ptr %11, align 8, !tbaa !30
  %13 = load i64, ptr %6, align 8, !tbaa !50
  %14 = getelementptr inbounds nuw i8, ptr %12, i64 %13
  store ptr %14, ptr %10, align 8, !tbaa !31
  ret void
}

; Function Attrs: mustprogress uwtable
define void @_ZN5boost9unit_test15unit_test_log_t12test_abortedEv(ptr noundef nonnull align 8 dereferenceable(8) %0) unnamed_addr #5 align 2 personality ptr @__gxx_personality_v0 {
  %2 = alloca ptr, align 8
  %3 = alloca %"class.boost::unit_test::ut_detail::entry_value_collector", align 1
  %4 = alloca %"struct.boost::unit_test::log::begin", align 8
  %5 = alloca %"class.boost::unit_test::basic_cstring", align 8
  %6 = alloca %"class.boost::unit_test::basic_cstring", align 8
  %7 = alloca ptr, align 8
  %8 = alloca i32, align 4
  store ptr %0, ptr %2, align 8, !tbaa !3
  call void @llvm.lifetime.start.p0(i64 1, ptr %3) #3
  %9 = load ptr, ptr @_ZN5boost9unit_test12_GLOBAL__N_113unit_test_logE, align 8, !tbaa !3
  call void @llvm.lifetime.start.p0(i64 24, ptr %4) #3
  call void @_ZN5boost9unit_test13basic_cstringIKcEC2ImEEPS2_T_(ptr noundef nonnull align 8 dereferenceable(16) %5, ptr noundef @.str, i64 noundef 140)
  call void @_ZN5boost9unit_test3log5beginC2ENS0_13basic_cstringIKcEEm(ptr noundef nonnull align 8 dereferenceable(24) %4, ptr noundef %5, i64 noundef 261)
  %10 = call noundef nonnull align 8 dereferenceable(8) ptr @_ZN5boost9unit_test15unit_test_log_tlsERKNS0_3log5beginE(ptr noundef nonnull align 8 dereferenceable(8) %9, ptr noundef nonnull align 8 dereferenceable(24) %4)
  call void @_ZN5boost9unit_test15unit_test_log_tclENS0_9log_levelE(ptr dead_on_unwind writable sret(%"class.boost::unit_test::ut_detail::entry_value_collector") align 1 %3, ptr noundef nonnull align 8 dereferenceable(8) %10, i32 noundef 2)
  invoke void @_ZN5boost9unit_test13basic_cstringIKcEC2EPS2_(ptr noundef nonnull align 8 dereferenceable(16) %6, ptr noundef @.str.2)
          to label %11 unwind label %14

11:                                               ; preds = %1
  %12 = invoke noundef nonnull align 1 dereferenceable(1) ptr @_ZNK5boost9unit_test9ut_detail21entry_value_collectorlsENS0_13basic_cstringIKcEE(ptr noundef nonnull align 1 dereferenceable(1) %3, ptr noundef %6)
          to label %13 unwind label %14

13:                                               ; preds = %11
  call void @_ZN5boost9unit_test9ut_detail21entry_value_collectorD1Ev(ptr noundef nonnull align 1 dereferenceable(1) %3) #3
  call void @llvm.lifetime.end.p0(i64 24, ptr %4) #3
  call void @llvm.lifetime.end.p0(i64 1, ptr %3) #3
  ret void

14:                                               ; preds = %11, %1
  %15 = landingpad { ptr, i32 }
          cleanup
  %16 = extractvalue { ptr, i32 } %15, 0
  store ptr %16, ptr %7, align 8
  %17 = extractvalue { ptr, i32 } %15, 1
  store i32 %17, ptr %8, align 4
  call void @_ZN5boost9unit_test9ut_detail21entry_value_collectorD1Ev(ptr noundef nonnull align 1 dereferenceable(1) %3) #3
  call void @llvm.lifetime.end.p0(i64 24, ptr %4) #3
  call void @llvm.lifetime.end.p0(i64 1, ptr %3) #3
  br label %18

18:                                               ; preds = %14
  %19 = load ptr, ptr %7, align 8
  %20 = load i32, ptr %8, align 4
  %21 = insertvalue { ptr, i32 } poison, ptr %19, 0
  %22 = insertvalue { ptr, i32 } %21, i32 %20, 1
  resume { ptr, i32 } %22
}